; ModuleID = '42/1421.cpp'
source_filename = "42/1421.cpp"
target datalayout = "e-m:e-p270:32:32-p271:32:32-p272:64:64-i64:64-f80:128-n8:16:32:64-S128"
target triple = "x86_64-pc-linux-gnu"

%"class.std::ios_base::Init" = type { i8 }
%"class.std::basic_istream" = type { i32 (...)**, i64, %"class.std::basic_ios" }
%"class.std::basic_ios" = type { %"class.std::ios_base", %"class.std::basic_ostream"*, i8, i8, %"class.std::basic_streambuf"*, %"class.std::ctype"*, %"class.std::num_put"*, %"class.std::num_get"* }
%"class.std::ios_base" = type { i32 (...)**, i64, i64, i32, i32, i32, %"struct.std::ios_base::_Callback_list"*, %"struct.std::ios_base::_Words", [8 x %"struct.std::ios_base::_Words"], i32, %"struct.std::ios_base::_Words"*, %"class.std::locale" }
%"struct.std::ios_base::_Callback_list" = type { %"struct.std::ios_base::_Callback_list"*, void (i32, %"class.std::ios_base"*, i32)*, i32, i32 }
%"struct.std::ios_base::_Words" = type { i8*, i64 }
%"class.std::locale" = type { %"class.std::locale::_Impl"* }
%"class.std::locale::_Impl" = type { i32, %"class.std::locale::facet"**, i64, %"class.std::locale::facet"**, i8** }
%"class.std::locale::facet" = type <{ i32 (...)**, i32, [4 x i8] }>
%"class.std::basic_ostream" = type { i32 (...)**, %"class.std::basic_ios" }
%"class.std::basic_streambuf" = type { i32 (...)**, i8*, i8*, i8*, i8*, i8*, i8*, %"class.std::locale" }
%"class.std::ctype" = type <{ %"class.std::locale::facet.base", [4 x i8], %struct.__locale_struct*, i8, [7 x i8], i32*, i32*, i16*, i8, [256 x i8], [256 x i8], i8, [6 x i8] }>
%"class.std::locale::facet.base" = type <{ i32 (...)**, i32 }>
%struct.__locale_struct = type { [13 x %struct.__locale_data*], i16*, i32*, i32*, [13 x i8*] }
%struct.__locale_data = type opaque
%"class.std::num_put" = type { %"class.std::locale::facet.base", [4 x i8] }
%"class.std::num_get" = type { %"class.std::locale::facet.base", [4 x i8] }

@_ZStL8__ioinit = internal global %"class.std::ios_base::Init" zeroinitializer, align 1
@__dso_handle = external hidden global i8
@_ZSt3cin = external dso_local global %"class.std::basic_istream", align 8
@_ZSt4cout = external dso_local global %"class.std::basic_ostream", align 8
@.str = private unnamed_addr constant [2 x i8] c" \00", align 1
@llvm.global_ctors = appending global [1 x { i32, void ()*, i8* }] [{ i32, void ()*, i8* } { i32 65535, void ()* @_GLOBAL__sub_I_1421.cpp, i8* null }]

; Function Attrs: noinline uwtable
define internal void @__cxx_global_var_init() #0 section ".text.startup" {
  call void @_ZNSt8ios_base4InitC1Ev(%"class.std::ios_base::Init"* @_ZStL8__ioinit)
  %1 = call i32 @__cxa_atexit(void (i8*)* bitcast (void (%"class.std::ios_base::Init"*)* @_ZNSt8ios_base4InitD1Ev to void (i8*)*), i8* getelementptr inbounds (%"class.std::ios_base::Init", %"class.std::ios_base::Init"* @_ZStL8__ioinit, i32 0, i32 0), i8* @__dso_handle) #3
  ret void
}

declare dso_local void @_ZNSt8ios_base4InitC1Ev(%"class.std::ios_base::Init"*) unnamed_addr #1

; Function Attrs: nounwind
declare dso_local void @_ZNSt8ios_base4InitD1Ev(%"class.std::ios_base::Init"*) unnamed_addr #2

; Function Attrs: nounwind
declare dso_local i32 @__cxa_atexit(void (i8*)*, i8*, i8*) #3

; Function Attrs: noinline norecurse uwtable
define dso_local i32 @main() #4 {
  %1 = alloca i32, align 4
  %2 = alloca i32, align 4
  %3 = alloca i32, align 4
  %4 = alloca i32, align 4
  %5 = alloca i8*, align 8
  %6 = alloca i64, align 8
  %7 = alloca i32, align 4
  %8 = alloca i32, align 4
  %9 = alloca i32, align 4
  store i32 0, i32* %1, align 4
  store i32 0, i32* %4, align 4
  %10 = call dereferenceable(280) %"class.std::basic_istream"* @_ZNSirsERi(%"class.std::basic_istream"* @_ZSt3cin, i32* dereferenceable(4) %2)
  %11 = load i32, i32* %2, align 4
  %12 = zext i32 %11 to i64
  %13 = call i8* @llvm.stacksave()
  store i8* %13, i8** %5, align 8
  %14 = alloca i32, i64 %12, align 16
  store i64 %12, i64* %6, align 8
  store i32 0, i32* %7, align 4
  br label %15

15:                                               ; preds = %24, %0
  %16 = load i32, i32* %7, align 4
  %17 = load i32, i32* %2, align 4
  %18 = icmp slt i32 %16, %17
  br i1 %18, label %19, label %27

19:                                               ; preds = %15
  %20 = load i32, i32* %7, align 4
  %21 = sext i32 %20 to i64
  %22 = getelementptr inbounds i32, i32* %14, i64 %21
  %23 = call dereferenceable(280) %"class.std::basic_istream"* @_ZNSirsERi(%"class.std::basic_istream"* @_ZSt3cin, i32* dereferenceable(4) %22)
  br label %24

24:                                               ; preds = %19
  %25 = load i32, i32* %7, align 4
  %26 = add nsw i32 %25, 1
  store i32 %26, i32* %7, align 4
  br label %15

27:                                               ; preds = %15
  %28 = call dereferenceable(280) %"class.std::basic_istream"* @_ZNSirsERi(%"class.std::basic_istream"* @_ZSt3cin, i32* dereferenceable(4) %3)
  br label %29

29:                                               ; preds = %71, %27
  %30 = load i32, i32* %4, align 4
  %31 = load i32, i32* %2, align 4
  %32 = icmp slt i32 %30, %31
  br i1 %32, label %33, label %74

33:                                               ; preds = %29
  %34 = load i32, i32* %4, align 4
  %35 = sext i32 %34 to i64
  %36 = getelementptr inbounds i32, i32* %14, i64 %35
  %37 = load i32, i32* %36, align 4
  %38 = load i32, i32* %3, align 4
  %39 = icmp eq i32 %37, %38
  br i1 %39, label %40, label %61

40:                                               ; preds = %33
  %41 = load i32, i32* %4, align 4
  store i32 %41, i32* %8, align 4
  br label %42

42:                                               ; preds = %55, %40
  %43 = load i32, i32* %8, align 4
  %44 = load i32, i32* %2, align 4
  %45 = icmp slt i32 %43, %44
  br i1 %45, label %46, label %58

46:                                               ; preds = %42
  %47 = load i32, i32* %8, align 4
  %48 = add nsw i32 %47, 1
  %49 = sext i32 %48 to i64
  %50 = getelementptr inbounds i32, i32* %14, i64 %49
  %51 = load i32, i32* %50, align 4
  %52 = load i32, i32* %8, align 4
  %53 = sext i32 %52 to i64
  %54 = getelementptr inbounds i32, i32* %14, i64 %53
  store i32 %51, i32* %54, align 4
  br label %55

55:                                               ; preds = %46
  %56 = load i32, i32* %8, align 4
  %57 = add nsw i32 %56, 1
  store i32 %57, i32* %8, align 4
  br label %42

58:                                               ; preds = %42
  %59 = load i32, i32* %2, align 4
  %60 = add nsw i32 %59, -1
  store i32 %60, i32* %2, align 4
  br label %61

61:                                               ; preds = %58, %33
  %62 = load i32, i32* %4, align 4
  %63 = sext i32 %62 to i64
  %64 = getelementptr inbounds i32, i32* %14, i64 %63
  %65 = load i32, i32* %64, align 4
  %66 = load i32, i32* %3, align 4
  %67 = icmp eq i32 %65, %66
  br i1 %67, label %68, label %71

68:                                               ; preds = %61
  %69 = load i32, i32* %4, align 4
  %70 = add nsw i32 %69, -1
  store i32 %70, i32* %4, align 4
  br label %71

71:                                               ; preds = %68, %61
  %72 = load i32, i32* %4, align 4
  %73 = add nsw i32 %72, 1
  store i32 %73, i32* %4, align 4
  br label %29

74:                                               ; preds = %29
  store i32 0, i32* %9, align 4
  br label %75

75:                                               ; preds = %98, %74
  %76 = load i32, i32* %9, align 4
  %77 = load i32, i32* %2, align 4
  %78 = icmp slt i32 %76, %77
  br i1 %78, label %79, label %101

79:                                               ; preds = %75
  %80 = load i32, i32* %9, align 4
  %81 = load i32, i32* %2, align 4
  %82 = sub nsw i32 %81, 1
  %83 = icmp slt i32 %80, %82
  br i1 %83, label %84, label %91

84:                                               ; preds = %79
  %85 = load i32, i32* %9, align 4
  %86 = sext i32 %85 to i64
  %87 = getelementptr inbounds i32, i32* %14, i64 %86
  %88 = load i32, i32* %87, align 4
  %89 = call dereferenceable(272) %"class.std::basic_ostream"* @_ZNSolsEi(%"class.std::basic_ostream"* @_ZSt4cout, i32 %88)
  %90 = call dereferenceable(272) %"class.std::basic_ostream"* @_ZStlsISt11char_traitsIcEERSt13basic_ostreamIcT_ES5_PKc(%"class.std::basic_ostream"* dereferenceable(272) %89, i8* getelementptr inbounds ([2 x i8], [2 x i8]* @.str, i64 0, i64 0))
  br label %97

91:                                               ; preds = %79
  %92 = load i32, i32* %9, align 4
  %93 = sext i32 %92 to i64
  %94 = getelementptr inbounds i32, i32* %14, i64 %93
  %95 = load i32, i32* %94, align 4
  %96 = call dereferenceable(272) %"class.std::basic_ostream"* @_ZNSolsEi(%"class.std::basic_ostream"* @_ZSt4cout, i32 %95)
  br label %97

97:                                               ; preds = %91, %84
  br label %98

98:                                               ; preds = %97
  %99 = load i32, i32* %9, align 4
  %100 = add nsw i32 %99, 1
  store i32 %100, i32* %9, align 4
  br label %75

101:                                              ; preds = %75
  store i32 0, i32* %1, align 4
  %102 = load i8*, i8** %5, align 8
  call void @llvm.stackrestore(i8* %102)
  %103 = load i32, i32* %1, align 4
  ret i32 %103
}

declare dso_local dereferenceable(280) %"class.std::basic_istream"* @_ZNSirsERi(%"class.std::basic_istream"*, i32* dereferenceable(4)) #1

; Function Attrs: nounwind
declare i8* @llvm.stacksave() #3

declare dso_local dereferenceable(272) %"class.std::basic_ostream"* @_ZStlsISt11char_traitsIcEERSt13basic_ostreamIcT_ES5_PKc(%"class.std::basic_ostream"* dereferenceable(272), i8*) #1

declare dso_local dereferenceable(272) %"class.std::basic_ostream"* @_ZNSolsEi(%"class.std::basic_ostream"*, i32) #1

; Function Attrs: nounwind
declare void @llvm.stackrestore(i8*) #3

; Function Attrs: noinline uwtable
define internal void @_GLOBAL__sub_I_1421.cpp() #0 section ".text.startup" {
  call void @__cxx_global_var_init()
  ret void
}


!llvm.module.flags = !{!0}
!llvm.ident = !{!1}

!0 = !{i32 1, !"wchar_size", i32 4}
!1 = !{!"clang version 10.0.0-4ubuntu1 "}
